target datalayout = "e-m:e-p270:32:32-p271:32:32-p272:64:64-i64:64-i128:128-f80:128-n8:16:32:64-S128"
target triple = "x86_64-pc-linux-gnu"

%struct.persist_msg_t = type { ptr, ptr, i16 }
%struct.dbd_node_state_msg = type { i64, ptr, ptr, ptr, ptr, i16, ptr, i32, i32, ptr }
%struct.node_record = type { ptr, ptr, i16, i64, i64, ptr, ptr, ptr, i16, ptr, i16, i16, i32, i32, i64, ptr, i16, i16, ptr, ptr, ptr, ptr, ptr, i64, i64, ptr, ptr, ptr, ptr, i32, ptr, ptr, i64, i64, i32, ptr, i64, ptr, i32, i16, ptr, ptr, i32, ptr, i32, i8, ptr, i32, i16, i16, ptr, i16, i64, i16, i64, ptr, i64, i32, i16, i64, i16, ptr, i16, i64, ptr, i64, i16, i32, i16, ptr, ptr, ptr, i16, i32, i16, i16, i32, ptr, i16, i32 }

; Function Attrs: nounwind uwtable
define dso_local i32 @clusteracct_storage_p_node_down(ptr noundef %0, ptr noundef %1, i64 noundef %2, ptr noundef %3, i32 noundef %4) #0 {
  %6 = alloca i32, align 4
  %7 = alloca ptr, align 8
  %8 = alloca ptr, align 8
  %9 = alloca i64, align 8
  %10 = alloca ptr, align 8
  %11 = alloca i32, align 4
  %12 = alloca %struct.persist_msg_t, align 8
  %13 = alloca %struct.dbd_node_state_msg, align 8
  %14 = alloca ptr, align 8
  %15 = alloca i32, align 4
  store ptr %0, ptr %7, align 8
  store ptr %1, ptr %8, align 8
  store i64 %2, ptr %9, align 8
  store ptr %3, ptr %10, align 8
  store i32 %4, ptr %11, align 4
  call void @llvm.lifetime.start.p0(i64 24, ptr %12) #9
  call void @llvm.memset.p0.i64(ptr align 8 %12, i8 0, i64 24, i1 false)
  call void @llvm.lifetime.start.p0(i64 72, ptr %13) #9
  call void @llvm.lifetime.start.p0(i64 8, ptr %14) #9
  %16 = load ptr, ptr %10, align 8
  %17 = icmp ne ptr %16, null
  br i1 %17, label %18, label %20

18:                                               ; preds = %5
  %19 = load ptr, ptr %10, align 8
  store ptr %19, ptr %14, align 8
  br label %24

20:                                               ; preds = %5
  %21 = load ptr, ptr %8, align 8
  %22 = getelementptr inbounds nuw %struct.node_record, ptr %21, i32 0, i32 55
  %23 = load ptr, ptr %22, align 8
  store ptr %23, ptr %14, align 8
  br label %24

24:                                               ; preds = %20, %18
  call void @llvm.memset.p0.i64(ptr align 8 %13, i8 0, i64 72, i1 false)
  %25 = load ptr, ptr %8, align 8
  %26 = getelementptr inbounds nuw %struct.node_record, ptr %25, i32 0, i32 37
  %27 = load ptr, ptr %26, align 8
  %28 = getelementptr inbounds nuw %struct.dbd_node_state_msg, ptr %13, i32 0, i32 2
  store ptr %27, ptr %28, align 8
  %29 = getelementptr inbounds nuw %struct.dbd_node_state_msg, ptr %13, i32 0, i32 5
  store i16 1, ptr %29, align 8
  %30 = load i64, ptr %9, align 8
  %31 = getelementptr inbounds nuw %struct.dbd_node_state_msg, ptr %13, i32 0, i32 0
  store i64 %30, ptr %31, align 8
  %32 = load ptr, ptr %14, align 8
  %33 = getelementptr inbounds nuw %struct.dbd_node_state_msg, ptr %13, i32 0, i32 6
  store ptr %32, ptr %33, align 8
  %34 = load i32, ptr %11, align 4
  %35 = getelementptr inbounds nuw %struct.dbd_node_state_msg, ptr %13, i32 0, i32 7
  store i32 %34, ptr %35, align 8
  %36 = load ptr, ptr %8, align 8
  %37 = getelementptr inbounds nuw %struct.node_record, ptr %36, i32 0, i32 44
  %38 = load i32, ptr %37, align 8
  %39 = getelementptr inbounds nuw %struct.dbd_node_state_msg, ptr %13, i32 0, i32 8
  store i32 %38, ptr %39, align 4
  %40 = load ptr, ptr %8, align 8
  %41 = getelementptr inbounds nuw %struct.node_record, ptr %40, i32 0, i32 71
  %42 = load ptr, ptr %41, align 8
  %43 = getelementptr inbounds nuw %struct.dbd_node_state_msg, ptr %13, i32 0, i32 9
  store ptr %42, ptr %43, align 8
  %44 = getelementptr inbounds nuw %struct.persist_msg_t, ptr %12, i32 0, i32 2
  store i16 1432, ptr %44, align 8
  %45 = load ptr, ptr %7, align 8
  %46 = getelementptr inbounds nuw %struct.persist_msg_t, ptr %12, i32 0, i32 0
  store ptr %45, ptr %46, align 8
  %47 = getelementptr inbounds nuw %struct.persist_msg_t, ptr %12, i32 0, i32 1
  store ptr %13, ptr %47, align 8
  %48 = call i32 @slurmdbd_agent_send(i16 noundef zeroext 11008, ptr noundef %12)
  %49 = icmp slt i32 %48, 0
  br i1 %49, label %50, label %51

50:                                               ; preds = %24
  store i32 -1, ptr %6, align 4
  store i32 1, ptr %15, align 4
  br label %52

51:                                               ; preds = %24
  store i32 0, ptr %6, align 4
  store i32 1, ptr %15, align 4
  br label %52

52:                                               ; preds = %51, %50
  call void @llvm.lifetime.end.p0(i64 8, ptr %14) #9
  call void @llvm.lifetime.end.p0(i64 72, ptr %13) #9
  call void @llvm.lifetime.end.p0(i64 24, ptr %12) #9
  %53 = load i32, ptr %6, align 4
  ret i32 %53
}