; Function Attrs: nounwind uwtable
define dso_local range(i32 -1, 1) i32 @clusteracct_storage_p_node_down(ptr noundef %0, ptr noundef readonly captures(none) %1, i64 noundef %2, ptr noundef %3, i32 noundef %4) local_unnamed_addr #0 {
  %6 = alloca %struct.persist_msg_t, align 8
  %7 = alloca %struct.dbd_node_state_msg, align 8
  call void @llvm.lifetime.start.p0(i64 24, ptr nonnull %6) #11
  %8 = getelementptr inbounds nuw i8, ptr %6, i64 16
  store i64 0, ptr %8, align 8
  call void @llvm.lifetime.start.p0(i64 72, ptr nonnull %7) #11
  %.not = icmp eq ptr %3, null
  br i1 %.not, label %9, label %12

9:                                                ; preds = %5
  %10 = getelementptr inbounds nuw i8, ptr %1, i64 384
  %11 = load ptr, ptr %10, align 8
  br label %12

12:                                               ; preds = %5, %9
  %.0 = phi ptr [ %11, %9 ], [ %3, %5 ]
  %13 = getelementptr inbounds nuw i8, ptr %7, i64 8
  call void @llvm.memset.p0.i64(ptr noundef nonnull align 8 dereferenceable(72) %13, i8 0, i64 40, i1 false)
  %14 = getelementptr inbounds nuw i8, ptr %1, i64 272
  %15 = load ptr, ptr %14, align 8
  %16 = getelementptr inbounds nuw i8, ptr %7, i64 16
  store ptr %15, ptr %16, align 8
  %17 = getelementptr inbounds nuw i8, ptr %7, i64 40
  store i16 1, ptr %17, align 8
  store i64 %2, ptr %7, align 8
  %18 = getelementptr inbounds nuw i8, ptr %7, i64 48
  store ptr %.0, ptr %18, align 8
  %19 = getelementptr inbounds nuw i8, ptr %7, i64 56
  store i32 %4, ptr %19, align 8
  %20 = getelementptr inbounds nuw i8, ptr %1, i64 320
  %21 = load i32, ptr %20, align 8
  %22 = getelementptr inbounds nuw i8, ptr %7, i64 60
  store i32 %21, ptr %22, align 4
  %23 = getelementptr inbounds nuw i8, ptr %1, i64 496
  %24 = load ptr, ptr %23, align 8
  %25 = getelementptr inbounds nuw i8, ptr %7, i64 64
  store ptr %24, ptr %25, align 8
  %26 = getelementptr inbounds nuw i8, ptr %6, i64 16
  store i16 1432, ptr %26, align 8
  store ptr %0, ptr %6, align 8
  %27 = getelementptr inbounds nuw i8, ptr %6, i64 8
  store ptr %7, ptr %27, align 8
  %28 = call i32 @slurmdbd_agent_send(i16 noundef zeroext 11008, ptr noundef nonnull %6) #11
  %.lobit = ashr i32 %28, 31
  call void @llvm.lifetime.end.p0(i64 72, ptr nonnull %7) #11
  call void @llvm.lifetime.end.p0(i64 24, ptr nonnull %6) #11
  ret i32 %.lobit
}